target datalayout = "e-m:e-p270:32:32-p271:32:32-p272:64:64-i64:64-i128:128-f80:128-n8:16:32:64-S128"
target triple = "x86_64-pc-linux-gnu"

%struct.pointf_s = type { double, double }
%struct.GVJ_s = type { ptr, ptr, ptr, ptr, ptr, ptr, i32, ptr, ptr, ptr, ptr, i64, i64, ptr, i32, %struct.gvplugin_active_render_s, %struct.gvplugin_active_device_s, %struct.gvplugin_active_loadimage_t, ptr, %struct.pointf_s, i8, ptr, i32, ptr, i8, ptr, i32, i32, i32, %struct.point, %struct.point, %struct.point, %struct.point, %struct.point, i32, %struct.boxf, %struct.pointf_s, %struct.boxf, %struct.boxf, %struct.pointf_s, %struct.pointf_s, double, i32, %struct.pointf_s, %struct.boxf, %struct.pointf_s, %struct.pointf_s, i32, i32, %struct.box, %struct.box, %struct.pointf_s, %struct.pointf_s, %struct.pointf_s, i8, i8, i8, i8, i8, i8, %struct.pointf_s, %struct.pointf_s, ptr, ptr, ptr, ptr, ptr, ptr, i64, ptr }
%struct.gvplugin_active_render_s = type { ptr, i32, ptr, ptr }
%struct.gvplugin_active_device_s = type { ptr, i32, ptr, ptr }
%struct.gvplugin_active_loadimage_t = type { ptr, i32, ptr }
%struct.point = type { i32, i32 }
%struct.boxf = type { %struct.pointf_s, %struct.pointf_s }
%struct.box = type { %struct.point, %struct.point }
%struct.obj_state_s = type { ptr, i32, %union.anon, i32, %struct.color_s, %struct.color_s, %struct.color_s, i32, double, i32, i32, double, ptr, double, double, double, ptr, ptr, ptr, ptr, ptr, ptr, ptr, ptr, ptr, ptr, ptr, ptr, ptr, ptr, ptr, ptr, ptr, i16, i32, i64, ptr, i64, ptr, ptr, i32, ptr, i32, ptr }
%union.anon = type { ptr }
%struct.color_s = type { %union.anon.0, i32 }
%union.anon.0 = type { [4 x double] }

@layerz = internal global i32 0, align 4
@z = internal global i32 0, align 4
@.str.29 = private unnamed_addr constant [36 x i8] c"    rotate   <%9.3f, %9.3f, %9.3f>\0A\00", align 1
@.str.30 = private unnamed_addr constant [37 x i8] c"    translate<%9.3f, %9.3f, %d.000>\0A\00", align 1
@.str.31 = private unnamed_addr constant [9 x i8] c"    %s}\0A\00", align 1
@.str.46 = private unnamed_addr constant [36 x i8] c"    scale    <%9.3f, %9.3f, %9.3f>\0A\00", align 1
@.str.48 = private unnamed_addr constant [15 x i8] c"//*** polygon\0A\00", align 1
@.str.49 = private unnamed_addr constant [32 x i8] c"sphere_sweep {\0A    %s\0A    %zu,\0A\00", align 1
@.str.50 = private unnamed_addr constant [14 x i8] c"linear_spline\00", align 1
@.str.51 = private unnamed_addr constant [33 x i8] c"    <%9.3f, %9.3f, %9.3f>, %.3f\0A\00", align 1
@.str.52 = private unnamed_addr constant [19 x i8] c"    tolerance 0.1\0A\00", align 1
@.str.53 = private unnamed_addr constant [16 x i8] c"polygon { %zu,\0A\00", align 1
@.str.54 = private unnamed_addr constant [27 x i8] c"\0A    <%9.3f, %9.3f, %9.3f>\00", align 1
@.str.55 = private unnamed_addr constant [6 x i8] c"\0A    \00", align 1

; Function Attrs: nounwind uwtable
define internal void @pov_polygon(ptr noundef %0, ptr noundef %1, i64 noundef %2, i32 noundef %3) #0 {
  %5 = alloca ptr, align 8
  %6 = alloca ptr, align 8
  %7 = alloca i64, align 8
  %8 = alloca i32, align 4
  %9 = alloca ptr, align 8
  %10 = alloca i64, align 8
  %11 = alloca i64, align 8
  store ptr %0, ptr %5, align 8, !tbaa !3
  store ptr %1, ptr %6, align 8, !tbaa !54
  store i64 %2, ptr %7, align 8, !tbaa !61
  store i32 %3, ptr %8, align 4, !tbaa !37
  %12 = load ptr, ptr %5, align 8, !tbaa !3
  %13 = call i32 @gvputs(ptr noundef %12, ptr noundef @.str.48)
  %14 = load i32, ptr @layerz, align 4, !tbaa !37
  %15 = sub nsw i32 %14, 2
  store i32 %15, ptr @z, align 4, !tbaa !37
  call void @llvm.lifetime.start.p0(i64 8, ptr %9) #14
  %16 = load ptr, ptr %5, align 8, !tbaa !3
  %17 = load ptr, ptr %5, align 8, !tbaa !3
  %18 = getelementptr inbounds nuw %struct.GVJ_s, ptr %17, i32 0, i32 4
  %19 = load ptr, ptr %18, align 8, !tbaa !8
  %20 = getelementptr inbounds nuw %struct.obj_state_s, ptr %19, i32 0, i32 4
  %21 = call ptr @pov_color_as_str(ptr noundef %16, ptr noundef byval(%struct.color_s) align 8 %20, float noundef 0.000000e+00)
  store ptr %21, ptr %9, align 8, !tbaa !38
  %22 = load ptr, ptr %5, align 8, !tbaa !3
  %23 = load i64, ptr %7, align 8, !tbaa !61
  %24 = add i64 %23, 1
  call void (ptr, ptr, ...) @gvprintf(ptr noundef %22, ptr noundef @.str.49, ptr noundef @.str.50, i64 noundef %24)
  call void @llvm.lifetime.start.p0(i64 8, ptr %10) #14
  store i64 0, ptr %10, align 8, !tbaa !61
  br label %25

25:                                               ; preds = %57, %4
  %26 = load i64, ptr %10, align 8, !tbaa !61
  %27 = load i64, ptr %7, align 8, !tbaa !61
  %28 = icmp ult i64 %26, %27
  br i1 %28, label %30, label %29

29:                                               ; preds = %25
  call void @llvm.lifetime.end.p0(i64 8, ptr %10) #14
  br label %60

30:                                               ; preds = %25
  %31 = load ptr, ptr %5, align 8, !tbaa !3
  %32 = load ptr, ptr %6, align 8, !tbaa !54
  %33 = load i64, ptr %10, align 8, !tbaa !61
  %34 = getelementptr inbounds nuw %struct.pointf_s, ptr %32, i64 %33
  %35 = getelementptr inbounds nuw %struct.pointf_s, ptr %34, i32 0, i32 0
  %36 = load double, ptr %35, align 8, !tbaa !48
  %37 = load ptr, ptr %5, align 8, !tbaa !3
  %38 = getelementptr inbounds nuw %struct.GVJ_s, ptr %37, i32 0, i32 52
  %39 = getelementptr inbounds nuw %struct.pointf_s, ptr %38, i32 0, i32 0
  %40 = load double, ptr %39, align 8, !tbaa !50
  %41 = fadd double %36, %40
  %42 = load ptr, ptr %6, align 8, !tbaa !54
  %43 = load i64, ptr %10, align 8, !tbaa !61
  %44 = getelementptr inbounds nuw %struct.pointf_s, ptr %42, i64 %43
  %45 = getelementptr inbounds nuw %struct.pointf_s, ptr %44, i32 0, i32 1
  %46 = load double, ptr %45, align 8, !tbaa !51
  %47 = load ptr, ptr %5, align 8, !tbaa !3
  %48 = getelementptr inbounds nuw %struct.GVJ_s, ptr %47, i32 0, i32 52
  %49 = getelementptr inbounds nuw %struct.pointf_s, ptr %48, i32 0, i32 1
  %50 = load double, ptr %49, align 8, !tbaa !52
  %51 = fadd double %46, %50
  %52 = load ptr, ptr %5, align 8, !tbaa !3
  %53 = getelementptr inbounds nuw %struct.GVJ_s, ptr %52, i32 0, i32 4
  %54 = load ptr, ptr %53, align 8, !tbaa !8
  %55 = getelementptr inbounds nuw %struct.obj_state_s, ptr %54, i32 0, i32 11
  %56 = load double, ptr %55, align 8, !tbaa !56
  call void (ptr, ptr, ...) @gvprintf(ptr noundef %31, ptr noundef @.str.51, double noundef %41, double noundef %51, double noundef 0.000000e+00, double noundef %56)
  br label %57

57:                                               ; preds = %30
  %58 = load i64, ptr %10, align 8, !tbaa !61
  %59 = add i64 %58, 1
  store i64 %59, ptr %10, align 8, !tbaa !61
  br label %25, !llvm.loop !62

60:                                               ; preds = %29
  %61 = load ptr, ptr %5, align 8, !tbaa !3
  %62 = load ptr, ptr %6, align 8, !tbaa !54
  %63 = getelementptr inbounds %struct.pointf_s, ptr %62, i64 0
  %64 = getelementptr inbounds nuw %struct.pointf_s, ptr %63, i32 0, i32 0
  %65 = load double, ptr %64, align 8, !tbaa !48
  %66 = load ptr, ptr %5, align 8, !tbaa !3
  %67 = getelementptr inbounds nuw %struct.GVJ_s, ptr %66, i32 0, i32 52
  %68 = getelementptr inbounds nuw %struct.pointf_s, ptr %67, i32 0, i32 0
  %69 = load double, ptr %68, align 8, !tbaa !50
  %70 = fadd double %65, %69
  %71 = load ptr, ptr %6, align 8, !tbaa !54
  %72 = getelementptr inbounds %struct.pointf_s, ptr %71, i64 0
  %73 = getelementptr inbounds nuw %struct.pointf_s, ptr %72, i32 0, i32 1
  %74 = load double, ptr %73, align 8, !tbaa !51
  %75 = load ptr, ptr %5, align 8, !tbaa !3
  %76 = getelementptr inbounds nuw %struct.GVJ_s, ptr %75, i32 0, i32 52
  %77 = getelementptr inbounds nuw %struct.pointf_s, ptr %76, i32 0, i32 1
  %78 = load double, ptr %77, align 8, !tbaa !52
  %79 = fadd double %74, %78
  %80 = load ptr, ptr %5, align 8, !tbaa !3
  %81 = getelementptr inbounds nuw %struct.GVJ_s, ptr %80, i32 0, i32 4
  %82 = load ptr, ptr %81, align 8, !tbaa !8
  %83 = getelementptr inbounds nuw %struct.obj_state_s, ptr %82, i32 0, i32 11
  %84 = load double, ptr %83, align 8, !tbaa !56
  call void (ptr, ptr, ...) @gvprintf(ptr noundef %61, ptr noundef @.str.51, double noundef %70, double noundef %79, double noundef 0.000000e+00, double noundef %84)
  %85 = load ptr, ptr %5, align 8, !tbaa !3
  %86 = call i32 @gvputs(ptr noundef %85, ptr noundef @.str.52)
  %87 = load ptr, ptr %5, align 8, !tbaa !3
  %88 = load ptr, ptr %5, align 8, !tbaa !3
  %89 = getelementptr inbounds nuw %struct.GVJ_s, ptr %88, i32 0, i32 51
  %90 = getelementptr inbounds nuw %struct.pointf_s, ptr %89, i32 0, i32 0
  %91 = load double, ptr %90, align 8, !tbaa !33
  %92 = load ptr, ptr %5, align 8, !tbaa !3
  %93 = getelementptr inbounds nuw %struct.GVJ_s, ptr %92, i32 0, i32 51
  %94 = getelementptr inbounds nuw %struct.pointf_s, ptr %93, i32 0, i32 1
  %95 = load double, ptr %94, align 8, !tbaa !36
  call void (ptr, ptr, ...) @gvprintf(ptr noundef %87, ptr noundef @.str.46, double noundef %91, double noundef %95, double noundef 1.000000e+00)
  %96 = load ptr, ptr %5, align 8, !tbaa !3
  %97 = load ptr, ptr %5, align 8, !tbaa !3
  %98 = getelementptr inbounds nuw %struct.GVJ_s, ptr %97, i32 0, i32 42
  %99 = load i32, ptr %98, align 8, !tbaa !53
  %100 = sitofp i32 %99 to float
  %101 = fpext float %100 to double
  call void (ptr, ptr, ...) @gvprintf(ptr noundef %96, ptr noundef @.str.29, double noundef 0.000000e+00, double noundef 0.000000e+00, double noundef %101)
  %102 = load ptr, ptr %5, align 8, !tbaa !3
  %103 = load i32, ptr @z, align 4, !tbaa !37
  %104 = sub nsw i32 %103, 2
  call void (ptr, ptr, ...) @gvprintf(ptr noundef %102, ptr noundef @.str.30, double noundef 0.000000e+00, double noundef 0.000000e+00, i32 noundef %104)
  %105 = load ptr, ptr %5, align 8, !tbaa !3
  %106 = load ptr, ptr %9, align 8, !tbaa !38
  call void (ptr, ptr, ...) @gvprintf(ptr noundef %105, ptr noundef @.str.31, ptr noundef %106)
  %107 = load ptr, ptr %9, align 8, !tbaa !38
  call void @free(ptr noundef %107) #14
  %108 = load i32, ptr %8, align 4, !tbaa !37
  %109 = icmp ne i32 %108, 0
  br i1 %109, label %110, label %173

110:                                              ; preds = %60
  %111 = load ptr, ptr %5, align 8, !tbaa !3
  %112 = load ptr, ptr %5, align 8, !tbaa !3
  %113 = getelementptr inbounds nuw %struct.GVJ_s, ptr %112, i32 0, i32 4
  %114 = load ptr, ptr %113, align 8, !tbaa !8
  %115 = getelementptr inbounds nuw %struct.obj_state_s, ptr %114, i32 0, i32 5
  %116 = call ptr @pov_color_as_str(ptr noundef %111, ptr noundef byval(%struct.color_s) align 8 %115, float noundef 2.500000e-01)
  store ptr %116, ptr %9, align 8, !tbaa !38
  %117 = load ptr, ptr %5, align 8, !tbaa !3
  %118 = load i64, ptr %7, align 8, !tbaa !61
  call void (ptr, ptr, ...) @gvprintf(ptr noundef %117, ptr noundef @.str.53, i64 noundef %118)
  call void @llvm.lifetime.start.p0(i64 8, ptr %11) #14
  store i64 0, ptr %11, align 8, !tbaa !61
  br label %119

119:                                              ; preds = %146, %110
  %120 = load i64, ptr %11, align 8, !tbaa !61
  %121 = load i64, ptr %7, align 8, !tbaa !61
  %122 = icmp ult i64 %120, %121
  br i1 %122, label %124, label %123

123:                                              ; preds = %119
  call void @llvm.lifetime.end.p0(i64 8, ptr %11) #14
  br label %149

124:                                              ; preds = %119
  %125 = load ptr, ptr %5, align 8, !tbaa !3
  %126 = load ptr, ptr %6, align 8, !tbaa !54
  %127 = load i64, ptr %11, align 8, !tbaa !61
  %128 = getelementptr inbounds nuw %struct.pointf_s, ptr %126, i64 %127
  %129 = getelementptr inbounds nuw %struct.pointf_s, ptr %128, i32 0, i32 0
  %130 = load double, ptr %129, align 8, !tbaa !48
  %131 = load ptr, ptr %5, align 8, !tbaa !3
  %132 = getelementptr inbounds nuw %struct.GVJ_s, ptr %131, i32 0, i32 52
  %133 = getelementptr inbounds nuw %struct.pointf_s, ptr %132, i32 0, i32 0
  %134 = load double, ptr %133, align 8, !tbaa !50
  %135 = fadd double %130, %134
  %136 = load ptr, ptr %6, align 8, !tbaa !54
  %137 = load i64, ptr %11, align 8, !tbaa !61
  %138 = getelementptr inbounds nuw %struct.pointf_s, ptr %136, i64 %137
  %139 = getelementptr inbounds nuw %struct.pointf_s, ptr %138, i32 0, i32 1
  %140 = load double, ptr %139, align 8, !tbaa !51
  %141 = load ptr, ptr %5, align 8, !tbaa !3
  %142 = getelementptr inbounds nuw %struct.GVJ_s, ptr %141, i32 0, i32 52
  %143 = getelementptr inbounds nuw %struct.pointf_s, ptr %142, i32 0, i32 1
  %144 = load double, ptr %143, align 8, !tbaa !52
  %145 = fadd double %140, %144
  call void (ptr, ptr, ...) @gvprintf(ptr noundef %125, ptr noundef @.str.54, double noundef %135, double noundef %145, double noundef 0.000000e+00)
  br label %146

146:                                              ; preds = %124
  %147 = load i64, ptr %11, align 8, !tbaa !61
  %148 = add i64 %147, 1
  store i64 %148, ptr %11, align 8, !tbaa !61
  br label %119, !llvm.loop !64

149:                                              ; preds = %123
  %150 = load ptr, ptr %5, align 8, !tbaa !3
  %151 = call i32 @gvputs(ptr noundef %150, ptr noundef @.str.55)
  %152 = load ptr, ptr %5, align 8, !tbaa !3
  %153 = load ptr, ptr %5, align 8, !tbaa !3
  %154 = getelementptr inbounds nuw %struct.GVJ_s, ptr %153, i32 0, i32 51
  %155 = getelementptr inbounds nuw %struct.pointf_s, ptr %154, i32 0, i32 0
  %156 = load double, ptr %155, align 8, !tbaa !33
  %157 = load ptr, ptr %5, align 8, !tbaa !3
  %158 = getelementptr inbounds nuw %struct.GVJ_s, ptr %157, i32 0, i32 51
  %159 = getelementptr inbounds nuw %struct.pointf_s, ptr %158, i32 0, i32 1
  %160 = load double, ptr %159, align 8, !tbaa !36
  call void (ptr, ptr, ...) @gvprintf(ptr noundef %152, ptr noundef @.str.46, double noundef %156, double noundef %160, double noundef 1.000000e+00)
  %161 = load ptr, ptr %5, align 8, !tbaa !3
  %162 = load ptr, ptr %5, align 8, !tbaa !3
  %163 = getelementptr inbounds nuw %struct.GVJ_s, ptr %162, i32 0, i32 42
  %164 = load i32, ptr %163, align 8, !tbaa !53
  %165 = sitofp i32 %164 to float
  %166 = fpext float %165 to double
  call void (ptr, ptr, ...) @gvprintf(ptr noundef %161, ptr noundef @.str.29, double noundef 0.000000e+00, double noundef 0.000000e+00, double noundef %166)
  %167 = load ptr, ptr %5, align 8, !tbaa !3
  %168 = load i32, ptr @z, align 4, !tbaa !37
  %169 = sub nsw i32 %168, 2
  call void (ptr, ptr, ...) @gvprintf(ptr noundef %167, ptr noundef @.str.30, double noundef 0.000000e+00, double noundef 0.000000e+00, i32 noundef %169)
  %170 = load ptr, ptr %5, align 8, !tbaa !3
  %171 = load ptr, ptr %9, align 8, !tbaa !38
  call void (ptr, ptr, ...) @gvprintf(ptr noundef %170, ptr noundef @.str.31, ptr noundef %171)
  %172 = load ptr, ptr %9, align 8, !tbaa !38
  call void @free(ptr noundef %172) #14
  br label %173

173:                                              ; preds = %149, %60
  call void @llvm.lifetime.end.p0(i64 8, ptr %9) #14
  ret void
}