; Function Attrs: nounwind uwtable
define internal void @pov_polygon(ptr noundef %0, ptr noundef readonly captures(none) %1, i64 noundef %2, i32 noundef %3) #0 {
  %5 = tail call i32 @gvputs(ptr noundef %0, ptr noundef nonnull @.str.48) #18
  %6 = load i32, ptr @layerz, align 4, !tbaa !35
  %7 = add nsw i32 %6, -2
  store i32 %7, ptr @z, align 4, !tbaa !35
  %8 = getelementptr inbounds nuw i8, ptr %0, i64 32
  %9 = load ptr, ptr %8, align 8, !tbaa !3
  %10 = getelementptr inbounds nuw i8, ptr %9, i64 32
  %11 = tail call fastcc ptr @pov_color_as_str(ptr noundef nonnull byval(%struct.color_s) align 8 %10, float noundef 0.000000e+00)
  %12 = add i64 %2, 1
  tail call void (ptr, ptr, ...) @gvprintf(ptr noundef %0, ptr noundef nonnull @.str.49, ptr noundef nonnull @.str.50, i64 noundef %12) #18
  %.not63 = icmp eq i64 %2, 0
  br i1 %.not63, label %._crit_edge, label %.lr.ph

.lr.ph:                                           ; preds = %4
  %13 = getelementptr inbounds nuw i8, ptr %0, i64 632
  %14 = getelementptr inbounds nuw i8, ptr %0, i64 640
  br label %38

._crit_edge:                                      ; preds = %38, %4
  %15 = load double, ptr %1, align 8, !tbaa !48
  %16 = getelementptr inbounds nuw i8, ptr %0, i64 632
  %17 = load double, ptr %16, align 8, !tbaa !45
  %18 = fadd double %15, %17
  %19 = getelementptr inbounds nuw i8, ptr %1, i64 8
  %20 = load double, ptr %19, align 8, !tbaa !49
  %21 = getelementptr inbounds nuw i8, ptr %0, i64 640
  %22 = load double, ptr %21, align 8, !tbaa !46
  %23 = fadd double %20, %22
  %24 = load ptr, ptr %8, align 8, !tbaa !3
  %25 = getelementptr inbounds nuw i8, ptr %24, i64 176
  %26 = load double, ptr %25, align 8, !tbaa !50
  tail call void (ptr, ptr, ...) @gvprintf(ptr noundef nonnull %0, ptr noundef nonnull @.str.51, double noundef %18, double noundef %23, double noundef 0.000000e+00, double noundef %26) #18
  %27 = tail call i32 @gvputs(ptr noundef nonnull %0, ptr noundef nonnull @.str.52) #18
  %28 = getelementptr inbounds nuw i8, ptr %0, i64 616
  %29 = load double, ptr %28, align 8, !tbaa !32
  %30 = getelementptr inbounds nuw i8, ptr %0, i64 624
  %31 = load double, ptr %30, align 8, !tbaa !34
  tail call void (ptr, ptr, ...) @gvprintf(ptr noundef nonnull %0, ptr noundef nonnull @.str.46, double noundef %29, double noundef %31, double noundef 1.000000e+00) #18
  %32 = getelementptr inbounds nuw i8, ptr %0, i64 488
  %33 = load i32, ptr %32, align 8, !tbaa !47
  %34 = sitofp i32 %33 to float
  %35 = fpext float %34 to double
  tail call void (ptr, ptr, ...) @gvprintf(ptr noundef nonnull %0, ptr noundef nonnull @.str.29, double noundef 0.000000e+00, double noundef 0.000000e+00, double noundef %35) #18
  %36 = load i32, ptr @z, align 4, !tbaa !35
  %37 = add nsw i32 %36, -2
  tail call void (ptr, ptr, ...) @gvprintf(ptr noundef nonnull %0, ptr noundef nonnull @.str.30, double noundef 0.000000e+00, double noundef 0.000000e+00, i32 noundef %37) #18
  tail call void (ptr, ptr, ...) @gvprintf(ptr noundef nonnull %0, ptr noundef nonnull @.str.31, ptr noundef %11) #18
  tail call void @free(ptr noundef %11) #18
  %.not = icmp eq i32 %3, 0
  br i1 %.not, label %72, label %51

38:                                               ; preds = %.lr.ph, %38
  %.05658 = phi i64 [ 0, %.lr.ph ], [ %50, %38 ]
  %39 = getelementptr inbounds nuw %struct.pointf_s, ptr %1, i64 %.05658
  %40 = load double, ptr %39, align 8, !tbaa !48
  %41 = load double, ptr %13, align 8, !tbaa !45
  %42 = fadd double %40, %41
  %43 = getelementptr inbounds nuw i8, ptr %39, i64 8
  %44 = load double, ptr %43, align 8, !tbaa !49
  %45 = load double, ptr %14, align 8, !tbaa !46
  %46 = fadd double %44, %45
  %47 = load ptr, ptr %8, align 8, !tbaa !3
  %48 = getelementptr inbounds nuw i8, ptr %47, i64 176
  %49 = load double, ptr %48, align 8, !tbaa !50
  tail call void (ptr, ptr, ...) @gvprintf(ptr noundef nonnull %0, ptr noundef nonnull @.str.51, double noundef %42, double noundef %46, double noundef 0.000000e+00, double noundef %49) #18
  %50 = add nuw i64 %.05658, 1
  %exitcond.not = icmp eq i64 %50, %2
  br i1 %exitcond.not, label %._crit_edge, label %38, !llvm.loop !56

51:                                               ; preds = %._crit_edge
  %52 = load ptr, ptr %8, align 8, !tbaa !3
  %53 = getelementptr inbounds nuw i8, ptr %52, i64 72
  %54 = tail call fastcc ptr @pov_color_as_str(ptr noundef nonnull byval(%struct.color_s) align 8 %53, float noundef 2.500000e-01)
  tail call void (ptr, ptr, ...) @gvprintf(ptr noundef nonnull %0, ptr noundef nonnull @.str.53, i64 noundef %2) #18
  br i1 %.not63, label %._crit_edge62, label %.lr.ph61

._crit_edge62:                                    ; preds = %.lr.ph61, %51
  %55 = tail call i32 @gvputs(ptr noundef nonnull %0, ptr noundef nonnull @.str.55) #18
  %56 = load double, ptr %28, align 8, !tbaa !32
  %57 = load double, ptr %30, align 8, !tbaa !34
  tail call void (ptr, ptr, ...) @gvprintf(ptr noundef nonnull %0, ptr noundef nonnull @.str.46, double noundef %56, double noundef %57, double noundef 1.000000e+00) #18
  %58 = load i32, ptr %32, align 8, !tbaa !47
  %59 = sitofp i32 %58 to float
  %60 = fpext float %59 to double
  tail call void (ptr, ptr, ...) @gvprintf(ptr noundef nonnull %0, ptr noundef nonnull @.str.29, double noundef 0.000000e+00, double noundef 0.000000e+00, double noundef %60) #18
  %61 = load i32, ptr @z, align 4, !tbaa !35
  %62 = add nsw i32 %61, -2
  tail call void (ptr, ptr, ...) @gvprintf(ptr noundef nonnull %0, ptr noundef nonnull @.str.30, double noundef 0.000000e+00, double noundef 0.000000e+00, i32 noundef %62) #18
  tail call void (ptr, ptr, ...) @gvprintf(ptr noundef nonnull %0, ptr noundef nonnull @.str.31, ptr noundef %54) #18
  tail call void @free(ptr noundef %54) #18
  br label %72

.lr.ph61:                                         ; preds = %51, %.lr.ph61
  %.059 = phi i64 [ %71, %.lr.ph61 ], [ 0, %51 ]
  %63 = getelementptr inbounds nuw %struct.pointf_s, ptr %1, i64 %.059
  %64 = load double, ptr %63, align 8, !tbaa !48
  %65 = load double, ptr %16, align 8, !tbaa !45
  %66 = fadd double %64, %65
  %67 = getelementptr inbounds nuw i8, ptr %63, i64 8
  %68 = load double, ptr %67, align 8, !tbaa !49
  %69 = load double, ptr %21, align 8, !tbaa !46
  %70 = fadd double %68, %69
  tail call void (ptr, ptr, ...) @gvprintf(ptr noundef nonnull %0, ptr noundef nonnull @.str.54, double noundef %66, double noundef %70, double noundef 0.000000e+00) #18
  %71 = add nuw i64 %.059, 1
  %exitcond65.not = icmp eq i64 %71, %2
  br i1 %exitcond65.not, label %._crit_edge62, label %.lr.ph61, !llvm.loop !58

72:                                               ; preds = %._crit_edge62, %._crit_edge
  ret void
}